; Function Attrs: mustprogress uwtable
define hidden void @_ZN5model17copy_func_interpsERKS_(ptr noundef nonnull align 8 dereferenceable(160) %this, ptr nocapture noundef nonnull readonly align 8 dereferenceable(160) %source) local_unnamed_addr #3 align 2 {
entry:
  %m_finterp = getelementptr inbounds i8, ptr %source, i64 48
  %0 = load ptr, ptr %m_finterp, align 8
  %m_capacity.i.i = getelementptr inbounds i8, ptr %source, i64 56
  %1 = load i32, ptr %m_capacity.i.i, align 8
  %idx.ext.i.i = zext i32 %1 to i64
  %add.ptr.i.i = getelementptr inbounds %"class.obj_map<func_decl, func_interp *>::obj_map_entry", ptr %0, i64 %idx.ext.i.i
  %cmp.not2.i.i.i.i = icmp eq i32 %1, 0
  br i1 %cmp.not2.i.i.i.i, label %_ZNK7obj_mapI9func_declP11func_interpE5beginEv.exit, label %land.rhs.i.i.i.i

land.rhs.i.i.i.i:                                 ; preds = %entry, %while.body.i.i.i.i
  %retval.sroa.0.0.i.i = phi ptr [ %incdec.ptr.i.i.i.i, %while.body.i.i.i.i ], [ %0, %entry ]
  %2 = load ptr, ptr %retval.sroa.0.0.i.i, align 8
  %switch.i.i.i.i = icmp ult ptr %2, inttoptr (i64 2 to ptr)
  br i1 %switch.i.i.i.i, label %while.body.i.i.i.i, label %_ZNK7obj_mapI9func_declP11func_interpE5beginEv.exit

while.body.i.i.i.i:                               ; preds = %land.rhs.i.i.i.i
  %incdec.ptr.i.i.i.i = getelementptr inbounds i8, ptr %retval.sroa.0.0.i.i, i64 16
  %cmp.not.i.i.i.i = icmp eq ptr %incdec.ptr.i.i.i.i, %add.ptr.i.i
  br i1 %cmp.not.i.i.i.i, label %for.end, label %land.rhs.i.i.i.i, !llvm.loop !9

_ZNK7obj_mapI9func_declP11func_interpE5beginEv.exit: ; preds = %land.rhs.i.i.i.i, %entry
  %retval.sroa.0.1.i.i = phi ptr [ %0, %entry ], [ %retval.sroa.0.0.i.i, %land.rhs.i.i.i.i ]
  %cmp.i.not10 = icmp eq ptr %retval.sroa.0.1.i.i, %add.ptr.i.i
  br i1 %cmp.i.not10, label %for.end, label %for.body

for.body:                                         ; preds = %_ZNK7obj_mapI9func_declP11func_interpE5beginEv.exit, %_ZN14core_hashtableIN7obj_mapI9func_declP11func_interpE13obj_map_entryE8obj_hashINS4_8key_dataEE10default_eqIS7_EE8iteratorppEv.exit
  %__begin1.sroa.0.011 = phi ptr [ %__begin1.sroa.0.1, %_ZN14core_hashtableIN7obj_mapI9func_declP11func_interpE13obj_map_entryE8obj_hashINS4_8key_dataEE10default_eqIS7_EE8iteratorppEv.exit ], [ %retval.sroa.0.1.i.i, %_ZNK7obj_mapI9func_declP11func_interpE5beginEv.exit ]
  %3 = load ptr, ptr %__begin1.sroa.0.011, align 8
  %m_value = getelementptr inbounds i8, ptr %__begin1.sroa.0.011, i64 8
  %4 = load ptr, ptr %m_value, align 8
  %call5 = tail call noundef ptr @_ZNK11func_interp4copyEv(ptr noundef nonnull align 8 dereferenceable(56) %4)
  tail call void @_ZN10model_core13register_declEP9func_declP11func_interp(ptr noundef nonnull align 8 dereferenceable(96) %this, ptr noundef %3, ptr noundef %call5)
  %incdec.ptr.i = getelementptr inbounds i8, ptr %__begin1.sroa.0.011, i64 16
  %cmp.not2.i.i = icmp eq ptr %incdec.ptr.i, %add.ptr.i.i
  br i1 %cmp.not2.i.i, label %for.end, label %land.rhs.i.i

land.rhs.i.i:                                     ; preds = %for.body, %while.body.i.i
  %__begin1.sroa.0.1 = phi ptr [ %incdec.ptr.i.i, %while.body.i.i ], [ %incdec.ptr.i, %for.body ]
  %5 = load ptr, ptr %__begin1.sroa.0.1, align 8
  %switch.i.i = icmp ult ptr %5, inttoptr (i64 2 to ptr)
  br i1 %switch.i.i, label %while.body.i.i, label %_ZN14core_hashtableIN7obj_mapI9func_declP11func_interpE13obj_map_entryE8obj_hashINS4_8key_dataEE10default_eqIS7_EE8iteratorppEv.exit

while.body.i.i:                                   ; preds = %land.rhs.i.i
  %incdec.ptr.i.i = getelementptr inbounds i8, ptr %__begin1.sroa.0.1, i64 16
  %cmp.not.i.i = icmp eq ptr %incdec.ptr.i.i, %add.ptr.i.i
  br i1 %cmp.not.i.i, label %for.end, label %land.rhs.i.i, !llvm.loop !9

_ZN14core_hashtableIN7obj_mapI9func_declP11func_interpE13obj_map_entryE8obj_hashINS4_8key_dataEE10default_eqIS7_EE8iteratorppEv.exit: ; preds = %land.rhs.i.i
  %cmp.i.not = icmp eq ptr %__begin1.sroa.0.1, %add.ptr.i.i
  br i1 %cmp.i.not, label %for.end, label %for.body

for.end:                                          ; preds = %while.body.i.i.i.i, %for.body, %_ZN14core_hashtableIN7obj_mapI9func_declP11func_interpE13obj_map_entryE8obj_hashINS4_8key_dataEE10default_eqIS7_EE8iteratorppEv.exit, %while.body.i.i, %_ZNK7obj_mapI9func_declP11func_interpE5beginEv.exit
  ret void
}